target datalayout = "e-m:e-p270:32:32-p271:32:32-p272:64:64-i64:64-i128:128-f80:128-n8:16:32:64-S128"
target triple = "x86_64-pc-linux-gnu"

%struct._object = type { %union.anon, ptr }
%union.anon = type { i64 }
%struct.z_stream_s = type { ptr, i32, i64, ptr, i32, i64, ptr, ptr, ptr, ptr, ptr, i32, i64, i64 }
%struct.compobject = type { %struct._object, %struct.z_stream_s, ptr, ptr, i8, i8, ptr, ptr }

; Function Attrs: nounwind uwtable
define internal void @Decomp_dealloc(ptr noundef %0) #0 {
  %2 = alloca ptr, align 8
  %3 = alloca ptr, align 8
  store ptr %0, ptr %2, align 8, !tbaa !3
  call void @llvm.lifetime.start.p0(i64 8, ptr %3) #7
  %4 = load ptr, ptr %2, align 8, !tbaa !3
  store ptr %4, ptr %3, align 8, !tbaa !8
  %5 = load ptr, ptr %3, align 8, !tbaa !8
  %6 = getelementptr inbounds nuw %struct.compobject, ptr %5, i32 0, i32 5
  %7 = load i8, ptr %6, align 1, !tbaa !71, !range !83, !noundef !84
  %8 = trunc i8 %7 to i1
  br i1 %8, label %9, label %13

9:                                                ; preds = %1
  %10 = load ptr, ptr %3, align 8, !tbaa !8
  %11 = getelementptr inbounds nuw %struct.compobject, ptr %10, i32 0, i32 1
  %12 = call i32 @inflateEnd(ptr noundef %11)
  br label %13

13:                                               ; preds = %9, %1
  %14 = load ptr, ptr %3, align 8, !tbaa !8
  call void @Dealloc(ptr noundef %14)
  call void @llvm.lifetime.end.p0(i64 8, ptr %3) #7
  ret void
}