; Function Attrs: nounwind uwtable
define internal void @Decomp_dealloc(ptr noundef %0) #0 {
  %2 = getelementptr inbounds nuw i8, ptr %0, i64 145
  %3 = load i8, ptr %2, align 1, !tbaa !55, !range !67, !noundef !68
  %4 = trunc nuw i8 %3 to i1
  br i1 %4, label %5, label %8

5:                                                ; preds = %1
  %6 = getelementptr inbounds nuw i8, ptr %0, i64 16
  %7 = tail call i32 @inflateEnd(ptr noundef nonnull %6) #7
  br label %8

8:                                                ; preds = %5, %1
  tail call fastcc void @Dealloc(ptr noundef nonnull %0)
  ret void
}